target datalayout = "e-m:e-p270:32:32-p271:32:32-p272:64:64-i64:64-i128:128-f80:128-n8:16:32:64-S128"
target triple = "x86_64-pc-linux-gnu"

%struct.darktable_t = type { %struct.dt_codepath_t, i32, i32, ptr, ptr, ptr, ptr, ptr, ptr, ptr, ptr, ptr, ptr, ptr, ptr, ptr, ptr, ptr, ptr, ptr, ptr, ptr, ptr, ptr, ptr, ptr, ptr, ptr, ptr, ptr, [64 x %struct.dt_pthread_mutex_t], %struct.dt_pthread_mutex_t, %struct.dt_pthread_mutex_t, %struct.dt_pthread_mutex_t, %struct.dt_pthread_mutex_t, %struct.dt_pthread_mutex_t, ptr, ptr, ptr, ptr, ptr, ptr, ptr, ptr, ptr, ptr, ptr, ptr, ptr, %struct.dt_lua_state_t, ptr, double, ptr, i32, [47 x i32], i32, i32, ptr, ptr, %struct.dt_sys_resources_t, %struct.dt_backthumb_t, %struct.dt_gimp_t }
%struct.dt_codepath_t = type { i8, [3 x i8] }
%struct.dt_pthread_mutex_t = type { %union.pthread_mutex_t }
%union.pthread_mutex_t = type { %struct.__pthread_mutex_s }
%struct.__pthread_mutex_s = type { i32, i32, i32, i32, i32, i16, i16, %struct.__pthread_internal_list }
%struct.__pthread_internal_list = type { ptr, ptr }
%struct.dt_lua_state_t = type { i32 }
%struct.dt_sys_resources_t = type { i64, i64, ptr, ptr, i32 }
%struct.dt_backthumb_t = type { double, double, i32, i32, i32, i32 }
%struct.dt_gimp_t = type { i32, ptr, ptr, i32, i32 }
%struct.dt_view_manager_t = type { ptr, ptr, ptr, %struct.dt_history_copy_item_t, %struct.anon, %struct.dt_act_on_cache_t, %struct.dt_act_on_cache_t, %struct.anon.0, %struct.anon.1, ptr, ptr, ptr, ptr, ptr, %struct.anon.2 }
%struct.dt_history_copy_item_t = type { ptr, ptr, i32, i32, i32 }
%struct.anon = type { ptr, ptr, ptr, i32, i32 }
%struct.dt_act_on_cache_t = type { ptr, i32, i32, i32, i32, ptr, i32, i32 }
%struct.anon.0 = type { ptr, ptr, ptr, ptr, ptr, ptr }
%struct.anon.1 = type { i32, i32, i32 }
%struct.anon.2 = type { %struct.anon.3, %struct.anon.4, %struct.anon.5, %struct.anon.6, %struct.anon.7, %struct.anon.8, %struct.anon.9, %struct.anon.10, %struct.anon.11, %struct.anon.12, %struct.anon.13, %struct.anon.14 }
%struct.anon.3 = type { ptr, ptr }
%struct.anon.4 = type { ptr, ptr }
%struct.anon.5 = type { ptr, ptr, ptr, ptr }
%struct.anon.6 = type { ptr, ptr }
%struct.anon.7 = type { ptr }
%struct.anon.8 = type { ptr, ptr, ptr, ptr, ptr }
%struct.anon.9 = type { ptr }
%struct.anon.10 = type { ptr, ptr }
%struct.anon.11 = type { ptr, ptr, ptr, ptr, ptr, ptr, ptr, ptr, ptr, ptr, ptr, ptr }
%struct.anon.12 = type { ptr, ptr, ptr, ptr }
%struct.anon.13 = type { ptr }
%struct.anon.14 = type { ptr, ptr }
%struct.dt_gui_gtk_t = type { ptr, %struct.dt_gui_widgets_t, %struct.dt_gui_scrollbars_t, i32, ptr, i32, [39 x %struct._GdkRGBA], i32, i32, i32, i32, i32, double, double, double, double, ptr, double, double, double, double, i32, i32, [4096 x i8], i32, i32, i32, %struct.dt_pthread_mutex_t }
%struct.dt_gui_widgets_t = type { ptr, ptr, ptr, ptr, i32, i32, i32 }
%struct.dt_gui_scrollbars_t = type { ptr, ptr, i32 }
%struct._GdkRGBA = type { double, double, double, double }
%struct.dt_thumbtable_t = type { i32, i32, i32, i32, ptr, ptr, i32, i32, i32, i32, i32, i32, i32, i32, %struct._cairo_rectangle_int, %struct._PangoRectangle, i32, i32, i32, i32, i32, i32, ptr, i32, i32, i32, ptr, i32, i32, i32, i32, i32, i32, float, i32, i32 }
%struct._cairo_rectangle_int = type { i32, i32, i32, i32 }
%struct._PangoRectangle = type { i32, i32, i32, i32 }
%struct._GSList = type { ptr, ptr }
%struct._GList = type { ptr, ptr, ptr }

@darktable = external global %struct.darktable_t, align 8
@.str.1 = private unnamed_addr constant [41 x i8] c"[sql] %s:%d, function %s(): prepare \22%s\22\00", align 1
@.str.2 = private unnamed_addr constant [117 x i8] c"generated/home/dtcxzyw/WorkSpace/Projects/compilers/llvm-opt-benchmark/bench/darktable/darktable/src/common/act_on.c\00", align 1
@stderr = external global ptr, align 8
@.str.3 = private unnamed_addr constant [53 x i8] c"sqlite3 error: %s:%d, function %s(), query \22%s\22: %s\0A\00", align 1
@.str.9 = private unnamed_addr constant [55 x i8] c"SELECT imgid FROM main.selected_images WHERE imgid =%d\00", align 1
@__FUNCTION__.dt_act_on_get_query = private unnamed_addr constant [20 x i8] c"dt_act_on_get_query\00", align 1
@.str.10 = private unnamed_addr constant [4 x i8] c"%d,\00", align 1
@.str.11 = private unnamed_addr constant [2 x i8] c" \00", align 1

; Function Attrs: nounwind uwtable
define ptr @dt_act_on_get_query(i32 noundef %0) #0 {
  %2 = alloca ptr, align 8
  %3 = alloca i32, align 4
  %4 = alloca i32, align 4
  %5 = alloca ptr, align 8
  %6 = alloca i32, align 4
  %7 = alloca ptr, align 8
  %8 = alloca ptr, align 8
  %9 = alloca i32, align 4
  %10 = alloca i32, align 4
  %11 = alloca ptr, align 8
  %12 = alloca i32, align 4
  %13 = alloca ptr, align 8
  store i32 %0, ptr %3, align 4, !tbaa !6
  call void @llvm.lifetime.start.p0(i64 4, ptr %4) #6
  %14 = call i32 (...) @dt_control_get_mouse_over_id()
  store i32 %14, ptr %4, align 4, !tbaa !6
  call void @llvm.lifetime.start.p0(i64 8, ptr %5) #6
  store ptr null, ptr %5, align 8, !tbaa !54
  call void @llvm.lifetime.start.p0(i64 4, ptr %6) #6
  store i32 0, ptr %6, align 4, !tbaa !6
  %15 = load i32, ptr %4, align 4, !tbaa !6
  %16 = icmp sgt i32 %15, 0
  br i1 %16, label %17, label %92

17:                                               ; preds = %1
  %18 = load ptr, ptr getelementptr inbounds nuw (%struct.darktable_t, ptr @darktable, i32 0, i32 14), align 8, !tbaa !55
  %19 = getelementptr inbounds nuw %struct.dt_gui_gtk_t, ptr %18, i32 0, i32 0
  %20 = load ptr, ptr %19, align 8, !tbaa !56
  %21 = call ptr @dt_ui_thumbtable(ptr noundef %20)
  %22 = getelementptr inbounds nuw %struct.dt_thumbtable_t, ptr %21, i32 0, i32 24
  %23 = load i32, ptr %22, align 4, !tbaa !62
  %24 = icmp ne i32 %23, 0
  br i1 %24, label %25, label %83

25:                                               ; preds = %17
  call void @llvm.lifetime.start.p0(i64 8, ptr %7) #6
  call void @llvm.lifetime.start.p0(i64 8, ptr %8) #6
  %26 = load i32, ptr %4, align 4, !tbaa !6
  %27 = call noalias ptr (ptr, ...) @g_strdup_printf(ptr noundef @.str.9, i32 noundef %26)
  store ptr %27, ptr %8, align 8, !tbaa !68
  br label %28

28:                                               ; preds = %25
  br label %29

29:                                               ; preds = %28
  %30 = load i32, ptr getelementptr inbounds nuw (%struct.darktable_t, ptr @darktable, i32 0, i32 2), align 8, !tbaa !69
  %31 = and i32 256, %30
  %32 = icmp ne i32 %31, 0
  br i1 %32, label %33, label %40

33:                                               ; preds = %29
  %34 = load i32, ptr getelementptr inbounds nuw (%struct.darktable_t, ptr @darktable, i32 0, i32 2), align 8, !tbaa !69
  %35 = xor i32 %34, -1
  %36 = and i32 0, %35
  %37 = icmp ne i32 %36, 0
  br i1 %37, label %40, label %38

38:                                               ; preds = %33
  %39 = load ptr, ptr %8, align 8, !tbaa !68
  call void (ptr, ...) @dt_print_ext(ptr noundef @.str.1, ptr noundef @.str.2, i32 noundef 326, ptr noundef @__FUNCTION__.dt_act_on_get_query, ptr noundef %39)
  br label %40

40:                                               ; preds = %38, %33, %29
  br label %41

41:                                               ; preds = %40
  br label %42

42:                                               ; preds = %41
  call void @llvm.lifetime.start.p0(i64 4, ptr %9) #6
  %43 = load ptr, ptr getelementptr inbounds nuw (%struct.darktable_t, ptr @darktable, i32 0, i32 18), align 8, !tbaa !70
  %44 = call ptr @dt_database_get(ptr noundef %43)
  %45 = load ptr, ptr %8, align 8, !tbaa !68
  %46 = call i32 @sqlite3_prepare_v2(ptr noundef %44, ptr noundef %45, i32 noundef -1, ptr noundef %7, ptr noundef null)
  store i32 %46, ptr %9, align 4, !tbaa !6
  %47 = load i32, ptr %9, align 4, !tbaa !6
  %48 = icmp ne i32 %47, 0
  br i1 %48, label %49, label %56

49:                                               ; preds = %42
  %50 = load ptr, ptr @stderr, align 8, !tbaa !71
  %51 = load ptr, ptr %8, align 8, !tbaa !68
  %52 = load ptr, ptr getelementptr inbounds nuw (%struct.darktable_t, ptr @darktable, i32 0, i32 18), align 8, !tbaa !70
  %53 = call ptr @dt_database_get(ptr noundef %52)
  %54 = call ptr @sqlite3_errmsg(ptr noundef %53)
  %55 = call i32 (ptr, ptr, ...) @fprintf(ptr noundef %50, ptr noundef @.str.3, ptr noundef @.str.2, i32 noundef 326, ptr noundef @__FUNCTION__.dt_act_on_get_query, ptr noundef %51, ptr noundef %54) #6
  br label %56

56:                                               ; preds = %49, %42
  call void @llvm.lifetime.end.p0(i64 4, ptr %9) #6
  br label %57

57:                                               ; preds = %56
  br label %58

58:                                               ; preds = %57
  %59 = load ptr, ptr %7, align 8, !tbaa !73
  %60 = icmp ne ptr %59, null
  br i1 %60, label %61, label %68

61:                                               ; preds = %58
  %62 = load ptr, ptr %7, align 8, !tbaa !73
  %63 = call i32 @sqlite3_step(ptr noundef %62)
  %64 = icmp eq i32 %63, 100
  br i1 %64, label %65, label %68

65:                                               ; preds = %61
  store i32 1, ptr %6, align 4, !tbaa !6
  %66 = load ptr, ptr %7, align 8, !tbaa !73
  %67 = call i32 @sqlite3_finalize(ptr noundef %66)
  br label %68

68:                                               ; preds = %65, %61, %58
  %69 = load ptr, ptr %8, align 8, !tbaa !68
  call void @g_free(ptr noundef %69)
  %70 = load i32, ptr %6, align 4, !tbaa !6
  %71 = icmp ne i32 %70, 0
  br i1 %71, label %72, label %76

72:                                               ; preds = %68
  %73 = load ptr, ptr getelementptr inbounds nuw (%struct.darktable_t, ptr @darktable, i32 0, i32 22), align 8, !tbaa !78
  %74 = load i32, ptr %3, align 4, !tbaa !6
  %75 = call ptr @dt_selection_get_list_query(ptr noundef %73, i32 noundef %74, i32 noundef 0)
  store ptr %75, ptr %2, align 8
  store i32 1, ptr %10, align 4
  br label %80

76:                                               ; preds = %68
  %77 = load i32, ptr %4, align 4, !tbaa !6
  %78 = load i32, ptr %3, align 4, !tbaa !6
  call void @_insert_in_list(ptr noundef %5, i32 noundef %77, i32 noundef %78)
  br label %79

79:                                               ; preds = %76
  store i32 0, ptr %10, align 4
  br label %80

80:                                               ; preds = %79, %72
  call void @llvm.lifetime.end.p0(i64 8, ptr %8) #6
  call void @llvm.lifetime.end.p0(i64 8, ptr %7) #6
  %81 = load i32, ptr %10, align 4
  switch i32 %81, label %167 [
    i32 0, label %82
  ]

82:                                               ; preds = %80
  br label %91

83:                                               ; preds = %17
  %84 = load i32, ptr %4, align 4, !tbaa !6
  %85 = load i32, ptr %3, align 4, !tbaa !6
  call void @_insert_in_list(ptr noundef %5, i32 noundef %84, i32 noundef %85)
  %86 = load i32, ptr %3, align 4, !tbaa !6
  %87 = icmp ne i32 %86, 0
  br i1 %87, label %90, label %88

88:                                               ; preds = %83
  %89 = load i32, ptr %4, align 4, !tbaa !6
  call void @_insert_in_list(ptr noundef %5, i32 noundef %89, i32 noundef 1)
  br label %90

90:                                               ; preds = %88, %83
  br label %91

91:                                               ; preds = %90, %82
  br label %134

92:                                               ; preds = %1
  %93 = load ptr, ptr getelementptr inbounds nuw (%struct.darktable_t, ptr @darktable, i32 0, i32 11), align 8, !tbaa !10
  %94 = getelementptr inbounds nuw %struct.dt_view_manager_t, ptr %93, i32 0, i32 2
  %95 = load ptr, ptr %94, align 8, !tbaa !79
  %96 = icmp ne ptr %95, null
  br i1 %96, label %97, label %129

97:                                               ; preds = %92
  call void @llvm.lifetime.start.p0(i64 8, ptr %11) #6
  %98 = load ptr, ptr getelementptr inbounds nuw (%struct.darktable_t, ptr @darktable, i32 0, i32 11), align 8, !tbaa !10
  %99 = getelementptr inbounds nuw %struct.dt_view_manager_t, ptr %98, i32 0, i32 2
  %100 = load ptr, ptr %99, align 8, !tbaa !79
  store ptr %100, ptr %11, align 8, !tbaa !96
  br label %101

101:                                              ; preds = %126, %97
  %102 = load ptr, ptr %11, align 8, !tbaa !96
  %103 = icmp ne ptr %102, null
  br i1 %103, label %105, label %104

104:                                              ; preds = %101
  store i32 6, ptr %10, align 4
  call void @llvm.lifetime.end.p0(i64 8, ptr %11) #6
  br label %128

105:                                              ; preds = %101
  call void @llvm.lifetime.start.p0(i64 4, ptr %12) #6
  %106 = load ptr, ptr %11, align 8, !tbaa !96
  %107 = getelementptr inbounds nuw %struct._GSList, ptr %106, i32 0, i32 0
  %108 = load ptr, ptr %107, align 8, !tbaa !97
  %109 = ptrtoint ptr %108 to i64
  %110 = trunc i64 %109 to i32
  store i32 %110, ptr %12, align 4, !tbaa !6
  %111 = load i32, ptr %12, align 4, !tbaa !6
  %112 = load i32, ptr %3, align 4, !tbaa !6
  call void @_insert_in_list(ptr noundef %5, i32 noundef %111, i32 noundef %112)
  %113 = load i32, ptr %3, align 4, !tbaa !6
  %114 = icmp ne i32 %113, 0
  br i1 %114, label %117, label %115

115:                                              ; preds = %105
  %116 = load i32, ptr %12, align 4, !tbaa !6
  call void @_insert_in_list(ptr noundef %5, i32 noundef %116, i32 noundef 1)
  br label %117

117:                                              ; preds = %115, %105
  call void @llvm.lifetime.end.p0(i64 4, ptr %12) #6
  br label %118

118:                                              ; preds = %117
  %119 = load ptr, ptr %11, align 8, !tbaa !96
  %120 = icmp ne ptr %119, null
  br i1 %120, label %121, label %125

121:                                              ; preds = %118
  %122 = load ptr, ptr %11, align 8, !tbaa !96
  %123 = getelementptr inbounds nuw %struct._GSList, ptr %122, i32 0, i32 1
  %124 = load ptr, ptr %123, align 8, !tbaa !99
  br label %126

125:                                              ; preds = %118
  br label %126

126:                                              ; preds = %125, %121
  %127 = phi ptr [ %124, %121 ], [ null, %125 ]
  store ptr %127, ptr %11, align 8, !tbaa !96
  br label %101

128:                                              ; preds = %104
  br label %133

129:                                              ; preds = %92
  %130 = load ptr, ptr getelementptr inbounds nuw (%struct.darktable_t, ptr @darktable, i32 0, i32 22), align 8, !tbaa !78
  %131 = load i32, ptr %3, align 4, !tbaa !6
  %132 = call ptr @dt_selection_get_list_query(ptr noundef %130, i32 noundef %131, i32 noundef 0)
  store ptr %132, ptr %2, align 8
  store i32 1, ptr %10, align 4
  br label %167

133:                                              ; preds = %128
  br label %134

134:                                              ; preds = %133, %91
  call void @llvm.lifetime.start.p0(i64 8, ptr %13) #6
  store ptr null, ptr %13, align 8, !tbaa !68
  br label %135

135:                                              ; preds = %152, %134
  %136 = load ptr, ptr %5, align 8, !tbaa !54
  %137 = icmp ne ptr %136, null
  br i1 %137, label %138, label %154

138:                                              ; preds = %135
  %139 = load ptr, ptr %5, align 8, !tbaa !54
  %140 = getelementptr inbounds nuw %struct._GList, ptr %139, i32 0, i32 0
  %141 = load ptr, ptr %140, align 8, !tbaa !104
  %142 = ptrtoint ptr %141 to i64
  %143 = trunc i64 %142 to i32
  call void (ptr, ptr, ...) @dt_util_str_cat(ptr noundef %13, ptr noundef @.str.10, i32 noundef %143)
  br label %144

144:                                              ; preds = %138
  %145 = load ptr, ptr %5, align 8, !tbaa !54
  %146 = icmp ne ptr %145, null
  br i1 %146, label %147, label %151

147:                                              ; preds = %144
  %148 = load ptr, ptr %5, align 8, !tbaa !54
  %149 = getelementptr inbounds nuw %struct._GList, ptr %148, i32 0, i32 1
  %150 = load ptr, ptr %149, align 8, !tbaa !106
  br label %152

151:                                              ; preds = %144
  br label %152

152:                                              ; preds = %151, %147
  %153 = phi ptr [ %150, %147 ], [ null, %151 ]
  store ptr %153, ptr %5, align 8, !tbaa !54
  br label %135

154:                                              ; preds = %135
  %155 = load ptr, ptr %13, align 8, !tbaa !68
  %156 = icmp ne ptr %155, null
  br i1 %156, label %157, label %163

157:                                              ; preds = %154
  %158 = load ptr, ptr %13, align 8, !tbaa !68
  %159 = load ptr, ptr %13, align 8, !tbaa !68
  %160 = call i64 @strlen(ptr noundef %159) #7
  %161 = sub i64 %160, 1
  %162 = getelementptr inbounds nuw i8, ptr %158, i64 %161
  store i8 0, ptr %162, align 1, !tbaa !128
  br label %165

163:                                              ; preds = %154
  %164 = call noalias ptr @g_strdup(ptr noundef @.str.11)
  store ptr %164, ptr %13, align 8, !tbaa !68
  br label %165

165:                                              ; preds = %163, %157
  %166 = load ptr, ptr %13, align 8, !tbaa !68
  store ptr %166, ptr %2, align 8
  store i32 1, ptr %10, align 4
  call void @llvm.lifetime.end.p0(i64 8, ptr %13) #6
  br label %167

167:                                              ; preds = %165, %129, %80
  call void @llvm.lifetime.end.p0(i64 4, ptr %6) #6
  call void @llvm.lifetime.end.p0(i64 8, ptr %5) #6
  call void @llvm.lifetime.end.p0(i64 4, ptr %4) #6
  %168 = load ptr, ptr %2, align 8
  ret ptr %168
}