; Function Attrs: nounwind uwtable
define ptr @dt_act_on_get_query(i32 noundef %0) local_unnamed_addr #0 {
  %2 = alloca ptr, align 8
  %3 = alloca ptr, align 8
  %4 = alloca ptr, align 8
  %5 = tail call i32 (...) @dt_control_get_mouse_over_id() #7
  call void @llvm.lifetime.start.p0(i64 8, ptr nonnull %2) #7
  store ptr null, ptr %2, align 8, !tbaa !14
  %6 = icmp sgt i32 %5, 0
  br i1 %6, label %7, label %46

7:                                                ; preds = %1
  %8 = load ptr, ptr getelementptr inbounds nuw (i8, ptr @darktable, i64 104), align 8, !tbaa !15
  %9 = load ptr, ptr %8, align 8, !tbaa !52
  %10 = tail call ptr @dt_ui_thumbtable(ptr noundef %9) #7
  %11 = getelementptr inbounds nuw i8, ptr %10, i64 132
  %12 = load i32, ptr %11, align 4, !tbaa !58
  %.not36 = icmp eq i32 %12, 0
  br i1 %.not36, label %38, label %13

13:                                               ; preds = %7
  call void @llvm.lifetime.start.p0(i64 8, ptr nonnull %3) #7
  %14 = tail call noalias ptr (ptr, ...) @g_strdup_printf(ptr noundef nonnull @.str.9, i32 noundef %5) #7
  %15 = load i32, ptr getelementptr inbounds nuw (i8, ptr @darktable, i64 8), align 8, !tbaa !64
  %16 = and i32 %15, 256
  %.not38 = icmp eq i32 %16, 0
  br i1 %.not38, label %18, label %17

17:                                               ; preds = %13
  tail call void (ptr, ...) @dt_print_ext(ptr noundef nonnull @.str.1, ptr noundef nonnull @.str.2, i32 noundef 326, ptr noundef nonnull @__FUNCTION__.dt_act_on_get_query, ptr noundef %14) #7
  br label %18

18:                                               ; preds = %17, %13
  %19 = load ptr, ptr getelementptr inbounds nuw (i8, ptr @darktable, i64 136), align 8, !tbaa !65
  %20 = tail call ptr @dt_database_get(ptr noundef %19) #7
  %21 = call i32 @sqlite3_prepare_v2(ptr noundef %20, ptr noundef %14, i32 noundef -1, ptr noundef nonnull %3, ptr noundef null) #7
  %.not39 = icmp eq i32 %21, 0
  br i1 %.not39, label %28, label %22

22:                                               ; preds = %18
  %23 = load ptr, ptr @stderr, align 8, !tbaa !66
  %24 = load ptr, ptr getelementptr inbounds nuw (i8, ptr @darktable, i64 136), align 8, !tbaa !65
  %25 = call ptr @dt_database_get(ptr noundef %24) #7
  %26 = call ptr @sqlite3_errmsg(ptr noundef %25) #7
  %27 = call i32 (ptr, ptr, ...) @fprintf(ptr noundef %23, ptr noundef nonnull @.str.3, ptr noundef nonnull @.str.2, i32 noundef 326, ptr noundef nonnull @__FUNCTION__.dt_act_on_get_query, ptr noundef %14, ptr noundef %26) #8
  br label %28

28:                                               ; preds = %22, %18
  %29 = load ptr, ptr %3, align 8, !tbaa !68
  %.not40 = icmp eq ptr %29, null
  br i1 %.not40, label %.thread50, label %30

30:                                               ; preds = %28
  %31 = call i32 @sqlite3_step(ptr noundef nonnull %29) #7
  %32 = icmp eq i32 %31, 100
  br i1 %32, label %33, label %.thread50

.thread50:                                        ; preds = %28, %30
  call void @g_free(ptr noundef %14) #7
  call fastcc void @_insert_in_list(ptr noundef %2, i32 noundef %5, i32 noundef %0)
  call void @llvm.lifetime.end.p0(i64 8, ptr nonnull %3) #7
  br label %_insert_in_list.exitthread-pre-split

33:                                               ; preds = %30
  %34 = load ptr, ptr %3, align 8, !tbaa !68
  %35 = call i32 @sqlite3_finalize(ptr noundef %34) #7
  call void @g_free(ptr noundef %14) #7
  %36 = load ptr, ptr getelementptr inbounds nuw (i8, ptr @darktable, i64 168), align 8, !tbaa !73
  %37 = call ptr @dt_selection_get_list_query(ptr noundef %36, i32 noundef %0, i32 noundef 0) #7
  call void @llvm.lifetime.end.p0(i64 8, ptr nonnull %3) #7
  br label %82

38:                                               ; preds = %7
  call fastcc void @_insert_in_list(ptr noundef %2, i32 noundef %5, i32 noundef %0)
  %.not37 = icmp eq i32 %0, 0
  br i1 %.not37, label %39, label %_insert_in_list.exitthread-pre-split

39:                                               ; preds = %38
  %40 = load ptr, ptr %2, align 8, !tbaa !14
  %41 = zext nneg i32 %5 to i64
  %42 = inttoptr i64 %41 to ptr
  %43 = tail call ptr @g_list_find_custom(ptr noundef %40, ptr noundef nonnull %42, ptr noundef nonnull @_find_custom) #7
  %.not36.i = icmp eq ptr %43, null
  br i1 %.not36.i, label %44, label %_insert_in_list.exit

44:                                               ; preds = %39
  %45 = tail call ptr @g_list_append(ptr noundef %40, ptr noundef nonnull %42) #7
  br label %_insert_in_list.exit

46:                                               ; preds = %1
  %47 = load ptr, ptr getelementptr inbounds nuw (i8, ptr @darktable, i64 80), align 8, !tbaa !74
  %48 = getelementptr inbounds nuw i8, ptr %47, i64 16
  %49 = load ptr, ptr %48, align 8, !tbaa !75
  %.not = icmp eq ptr %49, null
  br i1 %.not, label %66, label %.preheader

.preheader:                                       ; preds = %46
  %.not35 = icmp eq i32 %0, 0
  br i1 %.not35, label %.preheader.split.us, label %_insert_in_list.exit46

.preheader.split.us:                              ; preds = %.preheader, %_insert_in_list.exit46.us
  %.02553.us = phi ptr [ %60, %_insert_in_list.exit46.us ], [ %49, %.preheader ]
  %50 = load ptr, ptr %.02553.us, align 8, !tbaa !92
  %51 = ptrtoint ptr %50 to i64
  %52 = trunc i64 %51 to i32
  call fastcc void @_insert_in_list(ptr noundef %2, i32 noundef %52, i32 noundef 0)
  %53 = load ptr, ptr %2, align 8, !tbaa !14
  %sext.us = shl i64 %51, 32
  %54 = ashr exact i64 %sext.us, 32
  %55 = inttoptr i64 %54 to ptr
  %56 = tail call ptr @g_list_find_custom(ptr noundef %53, ptr noundef %55, ptr noundef nonnull @_find_custom) #7
  %.not36.i45.us = icmp eq ptr %56, null
  br i1 %.not36.i45.us, label %57, label %_insert_in_list.exit46.us

57:                                               ; preds = %.preheader.split.us
  %58 = tail call ptr @g_list_append(ptr noundef %53, ptr noundef %55) #7
  store ptr %58, ptr %2, align 8, !tbaa !14
  br label %_insert_in_list.exit46.us

_insert_in_list.exit46.us:                        ; preds = %57, %.preheader.split.us
  %59 = getelementptr inbounds nuw i8, ptr %.02553.us, i64 8
  %60 = load ptr, ptr %59, align 8, !tbaa !94
  %.not34.us = icmp eq ptr %60, null
  br i1 %.not34.us, label %_insert_in_list.exitthread-pre-split, label %.preheader.split.us

_insert_in_list.exit46:                           ; preds = %.preheader, %_insert_in_list.exit46
  %.02553 = phi ptr [ %65, %_insert_in_list.exit46 ], [ %49, %.preheader ]
  %61 = load ptr, ptr %.02553, align 8, !tbaa !92
  %62 = ptrtoint ptr %61 to i64
  %63 = trunc i64 %62 to i32
  call fastcc void @_insert_in_list(ptr noundef %2, i32 noundef %63, i32 noundef %0)
  %64 = getelementptr inbounds nuw i8, ptr %.02553, i64 8
  %65 = load ptr, ptr %64, align 8, !tbaa !94
  %.not34 = icmp eq ptr %65, null
  br i1 %.not34, label %_insert_in_list.exitthread-pre-split, label %_insert_in_list.exit46

66:                                               ; preds = %46
  %67 = load ptr, ptr getelementptr inbounds nuw (i8, ptr @darktable, i64 168), align 8, !tbaa !73
  %68 = tail call ptr @dt_selection_get_list_query(ptr noundef %67, i32 noundef %0, i32 noundef 0) #7
  br label %82

_insert_in_list.exitthread-pre-split:             ; preds = %_insert_in_list.exit46, %_insert_in_list.exit46.us, %38, %.thread50
  %.pr.pr = load ptr, ptr %2, align 8, !tbaa !14
  br label %_insert_in_list.exit

_insert_in_list.exit:                             ; preds = %_insert_in_list.exitthread-pre-split, %44, %39
  %.pr = phi ptr [ %.pr.pr, %_insert_in_list.exitthread-pre-split ], [ %45, %44 ], [ %40, %39 ]
  call void @llvm.lifetime.start.p0(i64 8, ptr nonnull %4) #7
  store ptr null, ptr %4, align 8, !tbaa !99
  %.not4254 = icmp eq ptr %.pr, null
  br i1 %.not4254, label %._crit_edge.thread, label %.lr.ph

.lr.ph:                                           ; preds = %_insert_in_list.exit, %.lr.ph
  %69 = phi ptr [ %74, %.lr.ph ], [ %.pr, %_insert_in_list.exit ]
  %70 = load ptr, ptr %69, align 8, !tbaa !100
  %71 = ptrtoint ptr %70 to i64
  %72 = trunc i64 %71 to i32
  call void (ptr, ptr, ...) @dt_util_str_cat(ptr noundef nonnull %4, ptr noundef nonnull @.str.10, i32 noundef %72) #7
  %73 = getelementptr inbounds nuw i8, ptr %69, i64 8
  %74 = load ptr, ptr %73, align 8, !tbaa !118
  %.not42 = icmp eq ptr %74, null
  br i1 %.not42, label %._crit_edge, label %.lr.ph

._crit_edge:                                      ; preds = %.lr.ph
  %.pre = load ptr, ptr %4, align 8, !tbaa !99
  %.not43 = icmp eq ptr %.pre, null
  br i1 %.not43, label %._crit_edge.thread, label %75

75:                                               ; preds = %._crit_edge
  %76 = call i64 @strlen(ptr noundef nonnull dereferenceable(1) %.pre) #9
  %77 = getelementptr i8, ptr %.pre, i64 %76
  %78 = getelementptr i8, ptr %77, i64 -1
  store i8 0, ptr %78, align 1, !tbaa !119
  %.pre57 = load ptr, ptr %4, align 8, !tbaa !99
  br label %80

._crit_edge.thread:                               ; preds = %_insert_in_list.exit, %._crit_edge
  %79 = call noalias ptr @g_strdup(ptr noundef nonnull @.str.11) #7
  br label %80

80:                                               ; preds = %._crit_edge.thread, %75
  %81 = phi ptr [ %79, %._crit_edge.thread ], [ %.pre57, %75 ]
  call void @llvm.lifetime.end.p0(i64 8, ptr nonnull %4) #7
  br label %82

82:                                               ; preds = %33, %80, %66
  %.1 = phi ptr [ %81, %80 ], [ %37, %33 ], [ %68, %66 ]
  call void @llvm.lifetime.end.p0(i64 8, ptr nonnull %2) #7
  ret ptr %.1
}